target datalayout = "e-m:e-p270:32:32-p271:32:32-p272:64:64-i64:64-i128:128-f80:128-n8:16:32:64-S128"
target triple = "x86_64-pc-linux-gnu"

%class.vector.0 = type { ptr }
%class.obj_mark = type { [8 x i8], %class.bit_vector }
%class.bit_vector = type { i32, i32, ptr }
%struct.default_t2uint = type { i8 }
%class.subterms = type { i8, %class.ref_vector, ptr, ptr }
%class.ref_vector = type { %class.ref_vector_core }
%class.ref_vector_core = type { %class.ref_manager_wrapper, %class.ptr_vector }
%class.ref_manager_wrapper = type { ptr }
%class.ptr_vector = type { %class.vector.0 }
%"class.subterms::iterator" = type { i8, %class.ptr_vector, ptr, %class.obj_mark, ptr }

; Function Attrs: mustprogress uwtable
define linkonce_odr hidden noundef nonnull align 8 dereferenceable(8) ptr @_ZN6vectorIP4exprLb0EjE9push_backERKS1_(ptr noundef nonnull align 8 dereferenceable(8) %0, ptr noundef nonnull align 8 dereferenceable(8) %1) #4 comdat align 2 {
  %3 = alloca ptr, align 8
  %4 = alloca ptr, align 8
  store ptr %0, ptr %3, align 8, !tbaa !50
  store ptr %1, ptr %4, align 8, !tbaa !37
  %5 = load ptr, ptr %3, align 8
  %6 = getelementptr inbounds nuw %class.vector.0, ptr %5, i32 0, i32 0
  %7 = load ptr, ptr %6, align 8, !tbaa !52
  %8 = icmp eq ptr %7, null
  br i1 %8, label %19, label %9

9:                                                ; preds = %2
  %10 = getelementptr inbounds nuw %class.vector.0, ptr %5, i32 0, i32 0
  %11 = load ptr, ptr %10, align 8, !tbaa !52
  %12 = getelementptr inbounds i32, ptr %11, i64 -1
  %13 = load i32, ptr %12, align 4, !tbaa !17
  %14 = getelementptr inbounds nuw %class.vector.0, ptr %5, i32 0, i32 0
  %15 = load ptr, ptr %14, align 8, !tbaa !52
  %16 = getelementptr inbounds i32, ptr %15, i64 -2
  %17 = load i32, ptr %16, align 4, !tbaa !17
  %18 = icmp eq i32 %13, %17
  br i1 %18, label %19, label %20

19:                                               ; preds = %9, %2
  call void @_ZN6vectorIP4exprLb0EjE13expand_vectorEv(ptr noundef nonnull align 8 dereferenceable(8) %5)
  br label %20

20:                                               ; preds = %19, %9
  %21 = getelementptr inbounds nuw %class.vector.0, ptr %5, i32 0, i32 0
  %22 = load ptr, ptr %21, align 8, !tbaa !52
  %23 = getelementptr inbounds nuw %class.vector.0, ptr %5, i32 0, i32 0
  %24 = load ptr, ptr %23, align 8, !tbaa !52
  %25 = getelementptr inbounds i32, ptr %24, i64 -1
  %26 = load i32, ptr %25, align 4, !tbaa !17
  %27 = zext i32 %26 to i64
  %28 = getelementptr inbounds nuw ptr, ptr %22, i64 %27
  %29 = load ptr, ptr %4, align 8, !tbaa !37
  %30 = load ptr, ptr %29, align 8, !tbaa !3
  store ptr %30, ptr %28, align 8, !tbaa !3
  %31 = getelementptr inbounds nuw %class.vector.0, ptr %5, i32 0, i32 0
  %32 = load ptr, ptr %31, align 8, !tbaa !52
  %33 = getelementptr inbounds i32, ptr %32, i64 -1
  %34 = load i32, ptr %33, align 4, !tbaa !17
  %35 = add i32 %34, 1
  store i32 %35, ptr %33, align 4, !tbaa !17
  ret ptr %5
}

; Function Attrs: mustprogress nounwind uwtable
define linkonce_odr hidden noundef ptr @_ZNK6vectorIP4exprLb0EjE4dataEv(ptr noundef nonnull align 8 dereferenceable(8) %0) #6 comdat align 2 {
  %2 = alloca ptr, align 8
  store ptr %0, ptr %2, align 8, !tbaa !50
  %3 = load ptr, ptr %2, align 8
  %4 = getelementptr inbounds nuw %class.vector.0, ptr %3, i32 0, i32 0
  %5 = load ptr, ptr %4, align 8, !tbaa !52
  ret ptr %5
}

; Function Attrs: mustprogress nounwind uwtable
define linkonce_odr hidden noundef i32 @_ZNK6vectorIP4exprLb0EjE4sizeEv(ptr noundef nonnull align 8 dereferenceable(8) %0) #6 comdat align 2 {
  %2 = alloca i32, align 4
  %3 = alloca ptr, align 8
  store ptr %0, ptr %3, align 8, !tbaa !50
  %4 = load ptr, ptr %3, align 8
  %5 = getelementptr inbounds nuw %class.vector.0, ptr %4, i32 0, i32 0
  %6 = load ptr, ptr %5, align 8, !tbaa !52
  %7 = icmp eq ptr %6, null
  br i1 %7, label %8, label %9

8:                                                ; preds = %1
  store i32 0, ptr %2, align 4
  br label %14

9:                                                ; preds = %1
  %10 = getelementptr inbounds nuw %class.vector.0, ptr %4, i32 0, i32 0
  %11 = load ptr, ptr %10, align 8, !tbaa !52
  %12 = getelementptr inbounds i32, ptr %11, i64 -1
  %13 = load i32, ptr %12, align 4, !tbaa !17
  store i32 %13, ptr %2, align 4
  br label %14

14:                                               ; preds = %9, %8
  %15 = load i32, ptr %2, align 4
  ret i32 %15
}

; Function Attrs: mustprogress nounwind uwtable
define linkonce_odr hidden void @_ZN10bit_vectorC2Ev(ptr noundef nonnull align 8 dereferenceable(16) %0) unnamed_addr #6 comdat align 2 {
  %2 = alloca ptr, align 8
  store ptr %0, ptr %2, align 8, !tbaa !129
  %3 = load ptr, ptr %2, align 8
  %4 = getelementptr inbounds nuw %class.bit_vector, ptr %3, i32 0, i32 0
  store i32 0, ptr %4, align 8, !tbaa !137
  %5 = getelementptr inbounds nuw %class.bit_vector, ptr %3, i32 0, i32 1
  store i32 0, ptr %5, align 4, !tbaa !138
  %6 = getelementptr inbounds nuw %class.bit_vector, ptr %3, i32 0, i32 2
  store ptr null, ptr %6, align 8, !tbaa !131
  ret void
}

; Function Attrs: mustprogress nounwind uwtable
define linkonce_odr hidden void @_ZN6vectorIP4exprLb0EjEC2Ev(ptr noundef nonnull align 8 dereferenceable(8) %0) unnamed_addr #6 comdat align 2 {
  %2 = alloca ptr, align 8
  store ptr %0, ptr %2, align 8, !tbaa !50
  %3 = load ptr, ptr %2, align 8
  %4 = getelementptr inbounds nuw %class.vector.0, ptr %3, i32 0, i32 0
  store ptr null, ptr %4, align 8, !tbaa !52
  ret void
}

; Function Attrs: mustprogress uwtable
define linkonce_odr hidden void @_ZN6vectorIP4exprLb0EjE6appendEjPKS1_(ptr noundef nonnull align 8 dereferenceable(8) %0, i32 noundef %1, ptr noundef %2) #4 comdat align 2 {
  %4 = alloca ptr, align 8
  %5 = alloca i32, align 4
  %6 = alloca ptr, align 8
  %7 = alloca i32, align 4
  store ptr %0, ptr %4, align 8, !tbaa !50
  store i32 %1, ptr %5, align 4, !tbaa !17
  store ptr %2, ptr %6, align 8, !tbaa !37
  %8 = load ptr, ptr %4, align 8
  call void @llvm.lifetime.start.p0(i64 4, ptr %7) #3
  store i32 0, ptr %7, align 4, !tbaa !17
  br label %9

9:                                                ; preds = %20, %3
  %10 = load i32, ptr %7, align 4, !tbaa !17
  %11 = load i32, ptr %5, align 4, !tbaa !17
  %12 = icmp ult i32 %10, %11
  br i1 %12, label %14, label %13

13:                                               ; preds = %9
  call void @llvm.lifetime.end.p0(i64 4, ptr %7) #3
  br label %23

14:                                               ; preds = %9
  %15 = load ptr, ptr %6, align 8, !tbaa !37
  %16 = load i32, ptr %7, align 4, !tbaa !17
  %17 = zext i32 %16 to i64
  %18 = getelementptr inbounds nuw ptr, ptr %15, i64 %17
  %19 = call noundef nonnull align 8 dereferenceable(8) ptr @_ZN6vectorIP4exprLb0EjE9push_backERKS1_(ptr noundef nonnull align 8 dereferenceable(8) %8, ptr noundef nonnull align 8 dereferenceable(8) %18)
  br label %20

20:                                               ; preds = %14
  %21 = load i32, ptr %7, align 4, !tbaa !17
  %22 = add i32 %21, 1
  store i32 %22, ptr %7, align 4, !tbaa !17
  br label %9, !llvm.loop !98

23:                                               ; preds = %13
  ret void
}

; Function Attrs: mustprogress nounwind uwtable
define linkonce_odr hidden noundef ptr @_ZNK15ref_vector_coreI4expr19ref_manager_wrapperIS0_11ast_managerEE4dataEv(ptr noundef nonnull align 8 dereferenceable(16) %0) #6 comdat align 2 {
  %2 = alloca ptr, align 8
  store ptr %0, ptr %2, align 8, !tbaa !85
  %3 = load ptr, ptr %2, align 8
  %4 = getelementptr inbounds nuw %class.ref_vector_core, ptr %3, i32 0, i32 1
  %5 = call noundef ptr @_ZNK6vectorIP4exprLb0EjE4dataEv(ptr noundef nonnull align 8 dereferenceable(8) %4)
  ret ptr %5
}

; Function Attrs: mustprogress uwtable
define linkonce_odr hidden noundef i32 @_ZNK15ref_vector_coreI4expr19ref_manager_wrapperIS0_11ast_managerEE4sizeEv(ptr noundef nonnull align 8 dereferenceable(16) %0) #4 comdat align 2 {
  %2 = alloca ptr, align 8
  store ptr %0, ptr %2, align 8, !tbaa !85
  %3 = load ptr, ptr %2, align 8
  %4 = getelementptr inbounds nuw %class.ref_vector_core, ptr %3, i32 0, i32 1
  %5 = call noundef i32 @_ZNK6vectorIP4exprLb0EjE4sizeEv(ptr noundef nonnull align 8 dereferenceable(8) %4)
  ret i32 %5
}

; Function Attrs: mustprogress nounwind uwtable
define linkonce_odr hidden void @_ZN6vectorIP4exprLb0EjE5resetEv(ptr noundef nonnull align 8 dereferenceable(8) %0) #6 comdat align 2 {
  %2 = alloca ptr, align 8
  store ptr %0, ptr %2, align 8, !tbaa !50
  %3 = load ptr, ptr %2, align 8
  %4 = getelementptr inbounds nuw %class.vector.0, ptr %3, i32 0, i32 0
  %5 = load ptr, ptr %4, align 8, !tbaa !52
  %6 = icmp ne ptr %5, null
  br i1 %6, label %7, label %11

7:                                                ; preds = %1
  %8 = getelementptr inbounds nuw %class.vector.0, ptr %3, i32 0, i32 0
  %9 = load ptr, ptr %8, align 8, !tbaa !52
  %10 = getelementptr inbounds i32, ptr %9, i64 -1
  store i32 0, ptr %10, align 4, !tbaa !17
  br label %11

11:                                               ; preds = %7, %1
  ret void
}

; Function Attrs: mustprogress uwtable
define linkonce_odr hidden void @_ZN8obj_markI4expr10bit_vector14default_t2uintIS0_EEC2ERKS3_(ptr noundef nonnull align 8 dereferenceable(24) %0, ptr noundef nonnull align 1 dereferenceable(1) %1) unnamed_addr #4 comdat align 2 {
  %3 = alloca ptr, align 8
  %4 = alloca ptr, align 8
  store ptr %0, ptr %3, align 8, !tbaa !8
  store ptr %1, ptr %4, align 8, !tbaa !96
  %5 = load ptr, ptr %3, align 8
  %6 = getelementptr inbounds nuw %class.obj_mark, ptr %5, i32 0, i32 1
  call void @_ZN10bit_vectorC2Ev(ptr noundef nonnull align 8 dereferenceable(16) %6)
  ret void
}

; Function Attrs: mustprogress nounwind uwtable
define linkonce_odr hidden void @_ZN10ptr_vectorI4exprEC2Ev(ptr noundef nonnull align 8 dereferenceable(8) %0) unnamed_addr #6 comdat align 2 {
  %2 = alloca ptr, align 8
  store ptr %0, ptr %2, align 8, !tbaa !31
  %3 = load ptr, ptr %2, align 8
  call void @_ZN6vectorIP4exprLb0EjEC2Ev(ptr noundef nonnull align 8 dereferenceable(8) %3) #3
  ret void
}

; Function Attrs: mustprogress uwtable
define hidden void @_ZN8subterms8iteratorC2ERKS_P10ptr_vectorI4exprEP8obj_markIS4_10bit_vector14default_t2uintIS4_EEb(ptr noundef nonnull align 8 dereferenceable(56) %0, ptr noundef nonnull align 8 dereferenceable(40) %1, ptr noundef %2, ptr noundef %3, i1 noundef zeroext %4) unnamed_addr #4 align 2 personality ptr @__gxx_personality_v0 {
  %6 = alloca ptr, align 8
  %7 = alloca ptr, align 8
  %8 = alloca ptr, align 8
  %9 = alloca ptr, align 8
  %10 = alloca i8, align 1
  %11 = alloca %struct.default_t2uint, align 1
  %12 = alloca ptr, align 8
  %13 = alloca i32, align 4
  store ptr %0, ptr %6, align 8, !tbaa !87
  store ptr %1, ptr %7, align 8, !tbaa !61
  store ptr %2, ptr %8, align 8, !tbaa !31
  store ptr %3, ptr %9, align 8, !tbaa !8
  %14 = zext i1 %4 to i8
  store i8 %14, ptr %10, align 1, !tbaa !65
  %15 = load ptr, ptr %6, align 8
  %16 = getelementptr inbounds nuw %"class.subterms::iterator", ptr %15, i32 0, i32 0
  %17 = load ptr, ptr %7, align 8, !tbaa !61
  %18 = getelementptr inbounds nuw %class.subterms, ptr %17, i32 0, i32 0
  %19 = load i8, ptr %18, align 8, !tbaa !69, !range !67, !noundef !68
  %20 = trunc i8 %19 to i1
  %21 = zext i1 %20 to i8
  store i8 %21, ptr %16, align 8, !tbaa !89
  %22 = getelementptr inbounds nuw %"class.subterms::iterator", ptr %15, i32 0, i32 1
  call void @_ZN10ptr_vectorI4exprEC2Ev(ptr noundef nonnull align 8 dereferenceable(8) %22) #3
  %23 = getelementptr inbounds nuw %"class.subterms::iterator", ptr %15, i32 0, i32 2
  %24 = load ptr, ptr %8, align 8, !tbaa !31
  store ptr %24, ptr %23, align 8, !tbaa !94
  %25 = getelementptr inbounds nuw %"class.subterms::iterator", ptr %15, i32 0, i32 3
  call void @llvm.lifetime.start.p0(i64 1, ptr %11) #3
  invoke void @_ZN8obj_markI4expr10bit_vector14default_t2uintIS0_EEC2ERKS3_(ptr noundef nonnull align 8 dereferenceable(24) %25, ptr noundef nonnull align 1 dereferenceable(1) %11)
          to label %26 unwind label %34

26:                                               ; preds = %5
  call void @llvm.lifetime.end.p0(i64 1, ptr %11) #3
  %27 = getelementptr inbounds nuw %"class.subterms::iterator", ptr %15, i32 0, i32 4
  %28 = load ptr, ptr %9, align 8, !tbaa !8
  store ptr %28, ptr %27, align 8, !tbaa !95
  %29 = load ptr, ptr %8, align 8, !tbaa !31
  %30 = icmp ne ptr %29, null
  br i1 %30, label %38, label %31

31:                                               ; preds = %26
  %32 = getelementptr inbounds nuw %"class.subterms::iterator", ptr %15, i32 0, i32 1
  %33 = getelementptr inbounds nuw %"class.subterms::iterator", ptr %15, i32 0, i32 2
  store ptr %32, ptr %33, align 8, !tbaa !94
  br label %46

34:                                               ; preds = %5
  %35 = landingpad { ptr, i32 }
          cleanup
  %36 = extractvalue { ptr, i32 } %35, 0
  store ptr %36, ptr %12, align 8
  %37 = extractvalue { ptr, i32 } %35, 1
  store i32 %37, ptr %13, align 4
  call void @llvm.lifetime.end.p0(i64 1, ptr %11) #3
  br label %69

38:                                               ; preds = %26
  %39 = getelementptr inbounds nuw %"class.subterms::iterator", ptr %15, i32 0, i32 2
  %40 = load ptr, ptr %39, align 8, !tbaa !94
  invoke void @_ZN6vectorIP4exprLb0EjE5resetEv(ptr noundef nonnull align 8 dereferenceable(8) %40)
          to label %41 unwind label %42

41:                                               ; preds = %38
  br label %46

42:                                               ; preds = %66, %62, %56, %38
  %43 = landingpad { ptr, i32 }
          cleanup
  %44 = extractvalue { ptr, i32 } %43, 0
  store ptr %44, ptr %12, align 8
  %45 = extractvalue { ptr, i32 } %43, 1
  store i32 %45, ptr %13, align 4
  call void @_ZN8obj_markI4expr10bit_vector14default_t2uintIS0_EED2Ev(ptr noundef nonnull align 8 dereferenceable(24) %25) #3
  br label %69

46:                                               ; preds = %41, %31
  %47 = getelementptr inbounds nuw %"class.subterms::iterator", ptr %15, i32 0, i32 4
  %48 = load ptr, ptr %47, align 8, !tbaa !95
  %49 = icmp ne ptr %48, null
  br i1 %49, label %53, label %50

50:                                               ; preds = %46
  %51 = getelementptr inbounds nuw %"class.subterms::iterator", ptr %15, i32 0, i32 3
  %52 = getelementptr inbounds nuw %"class.subterms::iterator", ptr %15, i32 0, i32 4
  store ptr %51, ptr %52, align 8, !tbaa !95
  br label %53

53:                                               ; preds = %50, %46
  %54 = load i8, ptr %10, align 1, !tbaa !65, !range !67, !noundef !68
  %55 = trunc i8 %54 to i1
  br i1 %55, label %56, label %68

56:                                               ; preds = %53
  %57 = getelementptr inbounds nuw %"class.subterms::iterator", ptr %15, i32 0, i32 2
  %58 = load ptr, ptr %57, align 8, !tbaa !94
  %59 = load ptr, ptr %7, align 8, !tbaa !61
  %60 = getelementptr inbounds nuw %class.subterms, ptr %59, i32 0, i32 1
  %61 = invoke noundef i32 @_ZNK15ref_vector_coreI4expr19ref_manager_wrapperIS0_11ast_managerEE4sizeEv(ptr noundef nonnull align 8 dereferenceable(16) %60)
          to label %62 unwind label %42

62:                                               ; preds = %56
  %63 = load ptr, ptr %7, align 8, !tbaa !61
  %64 = getelementptr inbounds nuw %class.subterms, ptr %63, i32 0, i32 1
  %65 = invoke noundef ptr @_ZNK15ref_vector_coreI4expr19ref_manager_wrapperIS0_11ast_managerEE4dataEv(ptr noundef nonnull align 8 dereferenceable(16) %64)
          to label %66 unwind label %42

66:                                               ; preds = %62
  invoke void @_ZN6vectorIP4exprLb0EjE6appendEjPKS1_(ptr noundef nonnull align 8 dereferenceable(8) %58, i32 noundef %61, ptr noundef %65)
          to label %67 unwind label %42

67:                                               ; preds = %66
  br label %68

68:                                               ; preds = %67, %53
  ret void

69:                                               ; preds = %42, %34
  call void @_ZN6vectorIP4exprLb0EjED2Ev(ptr noundef nonnull align 8 dereferenceable(8) %22) #3
  br label %70

70:                                               ; preds = %69
  %71 = load ptr, ptr %12, align 8
  %72 = load i32, ptr %13, align 4
  %73 = insertvalue { ptr, i32 } poison, ptr %71, 0
  %74 = insertvalue { ptr, i32 } %73, i32 %72, 1
  resume { ptr, i32 } %74
}