; Function Attrs: mustprogress uwtable
define hidden void @_ZN8subterms8iteratorC2ERKS_P10ptr_vectorI4exprEP8obj_markIS4_10bit_vector14default_t2uintIS4_EEb(ptr noundef nonnull align 8 dereferenceable(56) initializes((0, 1), (8, 24), (32, 56)) %0, ptr noundef nonnull readonly align 8 captures(none) dereferenceable(40) %1, ptr noundef %2, ptr noundef %3, i1 noundef zeroext %4) unnamed_addr #3 align 2 personality ptr @__gxx_personality_v0 {
  %6 = load i8, ptr %1, align 8, !tbaa !73, !range !91, !noundef !92
  store i8 %6, ptr %0, align 8, !tbaa !93
  %7 = getelementptr inbounds nuw i8, ptr %0, i64 8
  store ptr null, ptr %7, align 8, !tbaa !58
  %8 = getelementptr inbounds nuw i8, ptr %0, i64 16
  store ptr %2, ptr %8, align 8, !tbaa !97
  %9 = getelementptr inbounds nuw i8, ptr %0, i64 24
  %10 = getelementptr inbounds nuw i8, ptr %0, i64 32
  tail call void @llvm.memset.p0.i64(ptr noundef nonnull align 8 dereferenceable(16) %10, i8 0, i64 16, i1 false)
  %11 = getelementptr inbounds nuw i8, ptr %0, i64 48
  store ptr %3, ptr %11, align 8, !tbaa !98
  %.not = icmp eq ptr %2, null
  br i1 %.not, label %12, label %13

12:                                               ; preds = %5
  store ptr %7, ptr %8, align 8, !tbaa !97
  br label %_ZN6vectorIP4exprLb0EjE5resetEv.exit

13:                                               ; preds = %5
  %14 = load ptr, ptr %2, align 8, !tbaa !58
  %.not.i = icmp eq ptr %14, null
  br i1 %.not.i, label %_ZN6vectorIP4exprLb0EjE5resetEv.exit, label %15

15:                                               ; preds = %13
  %16 = getelementptr inbounds i8, ptr %14, i64 -4
  store i32 0, ptr %16, align 4, !tbaa !56
  br label %_ZN6vectorIP4exprLb0EjE5resetEv.exit

17:                                               ; preds = %37
  %18 = landingpad { ptr, i32 }
          cleanup
  tail call void @_ZN8obj_markI4expr10bit_vector14default_t2uintIS0_EED2Ev(ptr noundef nonnull align 8 dereferenceable(24) %9) #24
  tail call void @_ZN6vectorIP4exprLb0EjED2Ev(ptr noundef nonnull align 8 dereferenceable(8) %7) #24
  resume { ptr, i32 } %18

_ZN6vectorIP4exprLb0EjE5resetEv.exit:             ; preds = %15, %13, %12
  %.pre.i = phi ptr [ %14, %15 ], [ null, %13 ], [ null, %12 ]
  %19 = phi ptr [ %2, %15 ], [ %2, %13 ], [ %7, %12 ]
  %.not10 = icmp eq ptr %3, null
  br i1 %.not10, label %20, label %21

20:                                               ; preds = %_ZN6vectorIP4exprLb0EjE5resetEv.exit
  store ptr %9, ptr %11, align 8, !tbaa !98
  br label %21

21:                                               ; preds = %20, %_ZN6vectorIP4exprLb0EjE5resetEv.exit
  br i1 %4, label %22, label %_ZN6vectorIP4exprLb0EjE6appendEjPKS1_.exit

22:                                               ; preds = %21
  %23 = getelementptr inbounds nuw i8, ptr %1, i64 16
  %24 = load ptr, ptr %23, align 8, !tbaa !58
  %25 = icmp eq ptr %24, null
  br i1 %25, label %_ZN6vectorIP4exprLb0EjE6appendEjPKS1_.exit, label %_ZNK15ref_vector_coreI4expr19ref_manager_wrapperIS0_11ast_managerEE4sizeEv.exit

_ZNK15ref_vector_coreI4expr19ref_manager_wrapperIS0_11ast_managerEE4sizeEv.exit: ; preds = %22
  %26 = getelementptr inbounds i8, ptr %24, i64 -4
  %27 = load i32, ptr %26, align 4, !tbaa !56
  %.not.i12 = icmp eq i32 %27, 0
  br i1 %.not.i12, label %_ZN6vectorIP4exprLb0EjE6appendEjPKS1_.exit, label %.lr.ph.preheader.i

.lr.ph.preheader.i:                               ; preds = %_ZNK15ref_vector_coreI4expr19ref_manager_wrapperIS0_11ast_managerEE4sizeEv.exit
  %wide.trip.count.i = zext i32 %27 to i64
  br label %.lr.ph.i

.lr.ph.i:                                         ; preds = %_ZN6vectorIP4exprLb0EjE9push_backERKS1_.exit.i, %.lr.ph.preheader.i
  %28 = phi ptr [ %.pre.i, %.lr.ph.preheader.i ], [ %38, %_ZN6vectorIP4exprLb0EjE9push_backERKS1_.exit.i ]
  %indvars.iv.i = phi i64 [ 0, %.lr.ph.preheader.i ], [ %indvars.iv.next.i, %_ZN6vectorIP4exprLb0EjE9push_backERKS1_.exit.i ]
  %29 = getelementptr inbounds nuw ptr, ptr %24, i64 %indvars.iv.i
  %30 = icmp eq ptr %28, null
  br i1 %30, label %37, label %31

31:                                               ; preds = %.lr.ph.i
  %32 = getelementptr inbounds i8, ptr %28, i64 -4
  %33 = load i32, ptr %32, align 4, !tbaa !56
  %34 = getelementptr inbounds i8, ptr %28, i64 -8
  %35 = load i32, ptr %34, align 4, !tbaa !56
  %36 = icmp eq i32 %33, %35
  br i1 %36, label %37, label %_ZN6vectorIP4exprLb0EjE9push_backERKS1_.exit.i

37:                                               ; preds = %31, %.lr.ph.i
  invoke void @_ZN6vectorIP4exprLb0EjE13expand_vectorEv(ptr noundef nonnull align 8 dereferenceable(8) %19)
          to label %.noexc unwind label %17

.noexc:                                           ; preds = %37
  %.pre.i.i = load ptr, ptr %19, align 8, !tbaa !58
  %.phi.trans.insert.i.i = getelementptr inbounds i8, ptr %.pre.i.i, i64 -4
  %.pre2.i.i = load i32, ptr %.phi.trans.insert.i.i, align 4, !tbaa !56
  br label %_ZN6vectorIP4exprLb0EjE9push_backERKS1_.exit.i

_ZN6vectorIP4exprLb0EjE9push_backERKS1_.exit.i:   ; preds = %.noexc, %31
  %38 = phi ptr [ %.pre.i.i, %.noexc ], [ %28, %31 ]
  %39 = phi i32 [ %.pre2.i.i, %.noexc ], [ %33, %31 ]
  %40 = getelementptr inbounds i8, ptr %38, i64 -4
  %41 = zext i32 %39 to i64
  %42 = getelementptr inbounds nuw ptr, ptr %38, i64 %41
  %43 = load ptr, ptr %29, align 8, !tbaa !35
  store ptr %43, ptr %42, align 8, !tbaa !35
  %44 = add i32 %39, 1
  store i32 %44, ptr %40, align 4, !tbaa !56
  %indvars.iv.next.i = add nuw nsw i64 %indvars.iv.i, 1
  %exitcond.not.i = icmp eq i64 %indvars.iv.next.i, %wide.trip.count.i
  br i1 %exitcond.not.i, label %_ZN6vectorIP4exprLb0EjE6appendEjPKS1_.exit, label %.lr.ph.i, !llvm.loop !99

_ZN6vectorIP4exprLb0EjE6appendEjPKS1_.exit:       ; preds = %_ZN6vectorIP4exprLb0EjE9push_backERKS1_.exit.i, %22, %_ZNK15ref_vector_coreI4expr19ref_manager_wrapperIS0_11ast_managerEE4sizeEv.exit, %21
  ret void
}